###############################################################################
#
# IAR ELF Linker V7.40.7.9843/W32 for ARM                 05/Feb/2018  13:43:45
# Copyright 2007-2015 IAR Systems AB.
#
#    Output file  =  
#        D:\GitHub2\smart_box_q5\SMART_CARD\Project\STM32F10x_StdPeriph_Template\EWARM\STM3210B-EVAL\Exe\Project.out
#    Map file     =  
#        D:\GitHub2\smart_box_q5\SMART_CARD\Project\STM32F10x_StdPeriph_Template\EWARM\STM3210B-EVAL\List\Project.map
#    Command line =  
#        D:\GitHub2\smart_box_q5\SMART_CARD\Project\STM32F10x_StdPeriph_Template\EWARM\STM3210B-EVAL\Obj\bsp.o
#        D:\GitHub2\smart_box_q5\SMART_CARD\Project\STM32F10x_StdPeriph_Template\EWARM\STM3210B-EVAL\Obj\Common.o
#        D:\GitHub2\smart_box_q5\SMART_CARD\Project\STM32F10x_StdPeriph_Template\EWARM\STM3210B-EVAL\Obj\core_cm3.o
#        D:\GitHub2\smart_box_q5\SMART_CARD\Project\STM32F10x_StdPeriph_Template\EWARM\STM3210B-EVAL\Obj\cpu_a.o
#        D:\GitHub2\smart_box_q5\SMART_CARD\Project\STM32F10x_StdPeriph_Template\EWARM\STM3210B-EVAL\Obj\cpu_c.o
#        D:\GitHub2\smart_box_q5\SMART_CARD\Project\STM32F10x_StdPeriph_Template\EWARM\STM3210B-EVAL\Obj\cpu_core.o
#        D:\GitHub2\smart_box_q5\SMART_CARD\Project\STM32F10x_StdPeriph_Template\EWARM\STM3210B-EVAL\Obj\DeviceManage.o
#        D:\GitHub2\smart_box_q5\SMART_CARD\Project\App\rf\Encoding.o
#        D:\GitHub2\smart_box_q5\SMART_CARD\Project\STM32F10x_StdPeriph_Template\EWARM\STM3210B-EVAL\Obj\Encoding_v8.o
#        D:\GitHub2\smart_box_q5\SMART_CARD\Project\STM32F10x_StdPeriph_Template\EWARM\STM3210B-EVAL\Obj\jt808_protocol_rx.o
#        D:\GitHub2\smart_box_q5\SMART_CARD\Project\STM32F10x_StdPeriph_Template\EWARM\STM3210B-EVAL\Obj\jt808_protocol_tx.o
#        D:\GitHub2\smart_box_q5\SMART_CARD\Project\STM32F10x_StdPeriph_Template\EWARM\STM3210B-EVAL\Obj\jt808_pt_misc.o
#        D:\GitHub2\smart_box_q5\SMART_CARD\Project\STM32F10x_StdPeriph_Template\EWARM\STM3210B-EVAL\Obj\jt808_telecom_prot_manage.o
#        D:\GitHub2\smart_box_q5\SMART_CARD\Project\STM32F10x_StdPeriph_Template\EWARM\STM3210B-EVAL\Obj\lib_ascii.o
#        D:\GitHub2\smart_box_q5\SMART_CARD\Project\STM32F10x_StdPeriph_Template\EWARM\STM3210B-EVAL\Obj\lib_math.o
#        D:\GitHub2\smart_box_q5\SMART_CARD\Project\STM32F10x_StdPeriph_Template\EWARM\STM3210B-EVAL\Obj\lib_mem.o
#        D:\GitHub2\smart_box_q5\SMART_CARD\Project\STM32F10x_StdPeriph_Template\EWARM\STM3210B-EVAL\Obj\lib_mem_a.o
#        D:\GitHub2\smart_box_q5\SMART_CARD\Project\STM32F10x_StdPeriph_Template\EWARM\STM3210B-EVAL\Obj\lib_str.o
#        D:\GitHub2\smart_box_q5\SMART_CARD\Project\STM32F10x_StdPeriph_Template\EWARM\STM3210B-EVAL\Obj\main.o
#        D:\GitHub2\smart_box_q5\SMART_CARD\Project\STM32F10x_StdPeriph_Template\EWARM\STM3210B-EVAL\Obj\misc.o
#        D:\GitHub2\smart_box_q5\SMART_CARD\Project\STM32F10x_StdPeriph_Template\EWARM\STM3210B-EVAL\Obj\modem_sim800_app.o
#        D:\GitHub2\smart_box_q5\SMART_CARD\Project\STM32F10x_StdPeriph_Template\EWARM\STM3210B-EVAL\Obj\modem_sim800_AT_pro.o
#        D:\GitHub2\smart_box_q5\SMART_CARD\Project\STM32F10x_StdPeriph_Template\EWARM\STM3210B-EVAL\Obj\os_app_hooks.o
#        D:\GitHub2\smart_box_q5\SMART_CARD\Project\STM32F10x_StdPeriph_Template\EWARM\STM3210B-EVAL\Obj\os_cfg_app.o
#        D:\GitHub2\smart_box_q5\SMART_CARD\Project\STM32F10x_StdPeriph_Template\EWARM\STM3210B-EVAL\Obj\os_core.o
#        D:\GitHub2\smart_box_q5\SMART_CARD\Project\STM32F10x_StdPeriph_Template\EWARM\STM3210B-EVAL\Obj\os_cpu_a.o
#        D:\GitHub2\smart_box_q5\SMART_CARD\Project\STM32F10x_StdPeriph_Template\EWARM\STM3210B-EVAL\Obj\os_cpu_c.o
#        D:\GitHub2\smart_box_q5\SMART_CARD\Project\STM32F10x_StdPeriph_Template\EWARM\STM3210B-EVAL\Obj\os_dbg.o
#        D:\GitHub2\smart_box_q5\SMART_CARD\Project\STM32F10x_StdPeriph_Template\EWARM\STM3210B-EVAL\Obj\os_flag.o
#        D:\GitHub2\smart_box_q5\SMART_CARD\Project\STM32F10x_StdPeriph_Template\EWARM\STM3210B-EVAL\Obj\os_int.o
#        D:\GitHub2\smart_box_q5\SMART_CARD\Project\STM32F10x_StdPeriph_Template\EWARM\STM3210B-EVAL\Obj\os_mem.o
#        D:\GitHub2\smart_box_q5\SMART_CARD\Project\STM32F10x_StdPeriph_Template\EWARM\STM3210B-EVAL\Obj\os_msg.o
#        D:\GitHub2\smart_box_q5\SMART_CARD\Project\STM32F10x_StdPeriph_Template\EWARM\STM3210B-EVAL\Obj\os_mutex.o
#        D:\GitHub2\smart_box_q5\SMART_CARD\Project\STM32F10x_StdPeriph_Template\EWARM\STM3210B-EVAL\Obj\os_pend_multi.o
#        D:\GitHub2\smart_box_q5\SMART_CARD\Project\STM32F10x_StdPeriph_Template\EWARM\STM3210B-EVAL\Obj\os_prio.o
#        D:\GitHub2\smart_box_q5\SMART_CARD\Project\STM32F10x_StdPeriph_Template\EWARM\STM3210B-EVAL\Obj\os_q.o
#        D:\GitHub2\smart_box_q5\SMART_CARD\Project\STM32F10x_StdPeriph_Template\EWARM\STM3210B-EVAL\Obj\os_sem.o
#        D:\GitHub2\smart_box_q5\SMART_CARD\Project\STM32F10x_StdPeriph_Template\EWARM\STM3210B-EVAL\Obj\os_stat.o
#        D:\GitHub2\smart_box_q5\SMART_CARD\Project\STM32F10x_StdPeriph_Template\EWARM\STM3210B-EVAL\Obj\os_task.o
#        D:\GitHub2\smart_box_q5\SMART_CARD\Project\STM32F10x_StdPeriph_Template\EWARM\STM3210B-EVAL\Obj\os_tick.o
#        D:\GitHub2\smart_box_q5\SMART_CARD\Project\STM32F10x_StdPeriph_Template\EWARM\STM3210B-EVAL\Obj\os_time.o
#        D:\GitHub2\smart_box_q5\SMART_CARD\Project\STM32F10x_StdPeriph_Template\EWARM\STM3210B-EVAL\Obj\os_tmr.o
#        D:\GitHub2\smart_box_q5\SMART_CARD\Project\STM32F10x_StdPeriph_Template\EWARM\STM3210B-EVAL\Obj\os_var.o
#        D:\GitHub2\smart_box_q5\SMART_CARD\Project\STM32F10x_StdPeriph_Template\EWARM\STM3210B-EVAL\Obj\ringbuffer.o
#        D:\GitHub2\smart_box_q5\SMART_CARD\Project\STM32F10x_StdPeriph_Template\EWARM\STM3210B-EVAL\Obj\startup_stm32f10x_md.o
#        D:\GitHub2\smart_box_q5\SMART_CARD\Project\STM32F10x_StdPeriph_Template\EWARM\STM3210B-EVAL\Obj\stm32f10x_adc.o
#        D:\GitHub2\smart_box_q5\SMART_CARD\Project\STM32F10x_StdPeriph_Template\EWARM\STM3210B-EVAL\Obj\stm32f10x_bkp.o
#        D:\GitHub2\smart_box_q5\SMART_CARD\Project\STM32F10x_StdPeriph_Template\EWARM\STM3210B-EVAL\Obj\stm32f10x_can.o
#        D:\GitHub2\smart_box_q5\SMART_CARD\Project\STM32F10x_StdPeriph_Template\EWARM\STM3210B-EVAL\Obj\stm32f10x_cec.o
#        D:\GitHub2\smart_box_q5\SMART_CARD\Project\STM32F10x_StdPeriph_Template\EWARM\STM3210B-EVAL\Obj\stm32f10x_crc.o
#        D:\GitHub2\smart_box_q5\SMART_CARD\Project\STM32F10x_StdPeriph_Template\EWARM\STM3210B-EVAL\Obj\stm32f10x_dac.o
#        D:\GitHub2\smart_box_q5\SMART_CARD\Project\STM32F10x_StdPeriph_Template\EWARM\STM3210B-EVAL\Obj\stm32f10x_dbgmcu.o
#        D:\GitHub2\smart_box_q5\SMART_CARD\Project\STM32F10x_StdPeriph_Template\EWARM\STM3210B-EVAL\Obj\stm32f10x_dma.o
#        D:\GitHub2\smart_box_q5\SMART_CARD\Project\STM32F10x_StdPeriph_Template\EWARM\STM3210B-EVAL\Obj\stm32f10x_exti.o
#        D:\GitHub2\smart_box_q5\SMART_CARD\Project\STM32F10x_StdPeriph_Template\EWARM\STM3210B-EVAL\Obj\stm32f10x_flash.o
#        D:\GitHub2\smart_box_q5\SMART_CARD\Project\STM32F10x_StdPeriph_Template\EWARM\STM3210B-EVAL\Obj\stm32f10x_fsmc.o
#        D:\GitHub2\smart_box_q5\SMART_CARD\Project\STM32F10x_StdPeriph_Template\EWARM\STM3210B-EVAL\Obj\stm32f10x_gpio.o
#        D:\GitHub2\smart_box_q5\SMART_CARD\Project\STM32F10x_StdPeriph_Template\EWARM\STM3210B-EVAL\Obj\stm32f10x_i2c.o
#        D:\GitHub2\smart_box_q5\SMART_CARD\Project\STM32F10x_StdPeriph_Template\EWARM\STM3210B-EVAL\Obj\stm32f10x_it.o
#        D:\GitHub2\smart_box_q5\SMART_CARD\Project\STM32F10x_StdPeriph_Template\EWARM\STM3210B-EVAL\Obj\stm32f10x_iwdg.o
#        D:\GitHub2\smart_box_q5\SMART_CARD\Project\STM32F10x_StdPeriph_Template\EWARM\STM3210B-EVAL\Obj\stm32f10x_pwr.o
#        D:\GitHub2\smart_box_q5\SMART_CARD\Project\STM32F10x_StdPeriph_Template\EWARM\STM3210B-EVAL\Obj\stm32f10x_rcc.o
#        D:\GitHub2\smart_box_q5\SMART_CARD\Project\STM32F10x_StdPeriph_Template\EWARM\STM3210B-EVAL\Obj\stm32f10x_rtc.o
#        D:\GitHub2\smart_box_q5\SMART_CARD\Project\STM32F10x_StdPeriph_Template\EWARM\STM3210B-EVAL\Obj\stm32f10x_sdio.o
#        D:\GitHub2\smart_box_q5\SMART_CARD\Project\STM32F10x_StdPeriph_Template\EWARM\STM3210B-EVAL\Obj\stm32f10x_spi.o
#        D:\GitHub2\smart_box_q5\SMART_CARD\Project\STM32F10x_StdPeriph_Template\EWARM\STM3210B-EVAL\Obj\stm32f10x_tim.o
#        D:\GitHub2\smart_box_q5\SMART_CARD\Project\STM32F10x_StdPeriph_Template\EWARM\STM3210B-EVAL\Obj\stm32f10x_usart.o
#        D:\GitHub2\smart_box_q5\SMART_CARD\Project\STM32F10x_StdPeriph_Template\EWARM\STM3210B-EVAL\Obj\stm32f10x_wwdg.o
#        D:\GitHub2\smart_box_q5\SMART_CARD\Project\STM32F10x_StdPeriph_Template\EWARM\STM3210B-EVAL\Obj\system_stm32f10x.o
#        D:\GitHub2\smart_box_q5\SMART_CARD\Project\STM32F10x_StdPeriph_Template\EWARM\STM3210B-EVAL\Obj\uart1_network_layer.o
#        D:\GitHub2\smart_box_q5\SMART_CARD\Project\STM32F10x_StdPeriph_Template\EWARM\STM3210B-EVAL\Obj\uart2_network_layer.o
#        D:\GitHub2\smart_box_q5\SMART_CARD\Project\STM32F10x_StdPeriph_Template\EWARM\STM3210B-EVAL\Obj\uart3_network_layer.o
#        D:\GitHub2\smart_box_q5\SMART_CARD\Project\STM32F10x_StdPeriph_Template\EWARM\STM3210B-EVAL\Obj\user_debug_app.o
#        D:\GitHub2\smart_box_q5\SMART_CARD\Project\STM32F10x_StdPeriph_Template\EWARM\STM3210B-EVAL\Obj\user_gps_app.o
#        D:\GitHub2\smart_box_q5\SMART_CARD\Project\STM32F10x_StdPeriph_Template\EWARM\STM3210B-EVAL\Obj\user_internal_flash.o
#        D:\GitHub2\smart_box_q5\SMART_CARD\Project\STM32F10x_StdPeriph_Template\EWARM\STM3210B-EVAL\Obj\user_rf_app.o
#        D:\GitHub2\smart_box_q5\SMART_CARD\Project\STM32F10x_StdPeriph_Template\EWARM\STM3210B-EVAL\Obj\user_rtc_app.o
#        --redirect _Printf=_PrintfFull --redirect _Scanf=_ScanfFull -o
#        D:\GitHub2\smart_box_q5\SMART_CARD\Project\STM32F10x_StdPeriph_Template\EWARM\STM3210B-EVAL\Exe\Project.out
#        --map
#        D:\GitHub2\smart_box_q5\SMART_CARD\Project\STM32F10x_StdPeriph_Template\EWARM\STM3210B-EVAL\List\Project.map
#        --config
#        D:\GitHub2\smart_box_q5\SMART_CARD\Project\STM32F10x_StdPeriph_Template\EWARM\Project.icf
#        --semihosting --entry __iar_program_start --vfe
#
###############################################################################

*******************************************************************************
*** RUNTIME MODEL ATTRIBUTES
***

CppFlavor                     = *
__Heap_Handler                = DLMalloc
__SystemLibrary               = DLib
__dlib_dynamic_initialization = normal


*******************************************************************************
*** PLACEMENT SUMMARY
***

"A1":  place at 0x08000000 { ro section .intvec };
"P1":  place in [from 0x08000000 to 0x0800ffff] { ro };
"P2":  place in [from 0x20000000 to 0x20004fff] { rw, block CSTACK, block HEAP };

  Section             Kind        Address    Size  Object
  -------             ----        -------    ----  ------
"A1":                                        0xec
  .intvec             ro code  0x08000000    0xec  startup_stm32f10x_md.o [2]
                             - 0x080000ec    0xec

"P1":                                      0x9cc8
  .text               ro code  0x080000ec  0x1f84  user_rf_app.o [2]
  .text               ro code  0x08002070   0x26c  stm32f10x_tim.o [2]
  .text               ro code  0x080022dc   0x130  os_time.o [2]
  .text               ro code  0x0800240c    0x94  user_debug_app.o [2]
  .text               ro code  0x080024a0   0x120  stm32f10x_gpio.o [2]
  .text               ro code  0x080025c0    0x34  stm32f10x_iwdg.o [2]
  .text               ro code  0x080025f4     0x6  ABImemclr4.o [6]
  .text               ro code  0x080025fa    0x1a  xsnprout.o [4]
  .text               ro code  0x08002614   0x9fc  os_core.o [2]
  .text               ro code  0x08003010   0x414  DeviceManage.o [2]
  .text               ro code  0x08003424   0x29c  user_internal_flash.o [2]
  .text               ro code  0x080036c0    0x66  ABImemset.o [6]
  .text               ro code  0x08003728   0x138  Encoding_v8.o [2]
  .text               ro code  0x08003860   0x38c  Encoding.o [1]
  .text               ro code  0x08003bec    0x3a  ABImemset48.o [6]
  .text               ro code  0x08003c28    0x76  ABImemcpy_unaligned.o [6]
  .text               ro code  0x08003ca0    0x62  memcmp_unaligned.o [6]
  .text               ro code  0x08003d04    0x2a  stm32f10x_adc.o [2]
  .text               ro code  0x08003d30   0x834  os_task.o [2]
  CODE                ro code  0x08004564    0x2a  cpu_a.o [2]
  .text               ro code  0x08004590    0x94  cpu_core.o [2]
  .text               ro code  0x08004624   0x378  os_tick.o [2]
  .text               ro code  0x0800499c   0x1cc  os_cpu_c.o [2]
  .text               ro code  0x08004b68   0x334  uart1_network_layer.o [2]
  .text               ro code  0x08004e9c   0x3e0  os_mutex.o [2]
  .text               ro code  0x0800527c    0x3c  vsnprint.o [4]
  .text               ro code  0x080052b8    0x78  os_prio.o [2]
  .text               ro code  0x08005330    0x18  os_flag.o [2]
  .text               ro code  0x08005348    0x18  os_mem.o [2]
  .text               ro code  0x08005360   0x1a4  os_msg.o [2]
  .text               ro code  0x08005504    0x18  os_q.o [2]
  .text               ro code  0x0800551c    0x18  os_sem.o [2]
  .text               ro code  0x08005534   0x2b0  os_tmr.o [2]
  .text               ro code  0x080057e4     0x2  os_dbg.o [2]
  .text               ro code  0x080057e6     0x2  os_cfg_app.o [2]
  CODE                ro code  0x080057e8    0x84  os_cpu_a.o [2]
  .text               ro code  0x0800586c     0xc  bsp.o [2]
  .text               ro code  0x08005878  0x14f0  dlmalloc.o [4]
  .text               ro code  0x08006d68   0x1bc  stm32f10x_rcc.o [2]
  .text               ro code  0x08006f24   0x134  stm32f10x_flash.o [2]
  .text               ro code  0x08007058    0x7c  misc.o [2]
  .text               ro code  0x080070d4   0x27c  user_rtc_app.o [2]
  .text               ro code  0x08007350    0x14  memset.o [4]
  .text               ro code  0x08007364   0x15c  stm32f10x_usart.o [2]
  .text               ro code  0x080074c0    0x10  uart1_network_layer.o [2]
  .text               ro code  0x080074d0   0x1ac  ringbuffer.o [2]
  .text               ro code  0x0800767c  0x1152  xprintffull.o [4]
  .text               ro code  0x080087ce     0x6  abort.o [4]
  .text               ro code  0x080087d4    0x2c  xgetmemchunk.o [4]
  .text               ro code  0x08008800     0xc  stm32f10x_pwr.o [2]
  .text               ro code  0x0800880c    0x48  stm32f10x_bkp.o [2]
  .text               ro code  0x08008854    0xc8  stm32f10x_rtc.o [2]
  .text               ro code  0x0800891c    0xbc  Common.o [2]
  .text               ro code  0x080089d8    0x20  xmbtowc.o [4]
  .text               ro code  0x080089f8    0x16  strchr.o [6]
  .text               ro code  0x08008a10    0x36  strlen.o [6]
  .text               ro code  0x08008a48    0x58  memchr.o [6]
  .text               ro code  0x08008aa0     0xa  xmbcurmax.o [4]
  .text               ro code  0x08008aaa    0x1a  xwctomb.o [4]
  .text               ro code  0x08008ac4    0xee  I64DivMod.o [6]
  .text               ro code  0x08008bb2    0x42  xdnorm.o [5]
  .text               ro code  0x08008bf4    0x2e  DblCmpLe.o [5]
  .text               ro code  0x08008c24    0x2e  DblCmpGe.o [5]
  .text               ro code  0x08008c54   0x10c  xdscale.o [5]
  .text               ro code  0x08008d60    0x58  DblToI32.o [5]
  .text               ro code  0x08008db8    0x30  I32ToDbl.o [5]
  .text               ro code  0x08008de8   0x180  DblSub.o [5]
  .text               ro code  0x08008f68   0x1a2  DblMul.o [5]
  .text               ro code  0x0800910c   0x256  DblDiv.o [5]
  .text               ro code  0x08009364    0x6c  localeconv.o [4]
  .text               ro code  0x080093d0     0xe  div.o [4]
  .text               ro code  0x080093e0    0x14  exit.o [7]
  .text               ro code  0x080093f4    0x14  setlocale.o [4]
  .text               ro code  0x08009408    0x60  xencoding_sb.o [4]
  .text               ro code  0x08009468     0x2  I64DivZer.o [6]
  .text               ro code  0x0800946c    0xd4  DblAdd.o [5]
  .text               ro code  0x08009540     0x2  xtls.o [4]
  .text               ro code  0x08009544   0x16c  uart2_network_layer.o [2]
  .text               ro code  0x080096b0    0x10  uart2_network_layer.o [2]
  .text               ro code  0x080096c0   0x16c  uart3_network_layer.o [2]
  .text               ro code  0x0800982c    0x10  uart3_network_layer.o [2]
  .text               ro code  0x0800983c    0xd0  packbits_init.o [6]
  .text               ro code  0x0800990c    0x78  main.o [2]
  .text               ro code  0x08009984    0x78  stm32f10x_it.o [2]
  .text               ro code  0x080099fc    0x28  stm32f10x_exti.o [2]
  .text               ro code  0x08009a24    0x52  system_stm32f10x.o [2]
  .rodata             const    0x08009a78    0x50  os_cfg_app.o [2]
  .text               ro code  0x08009ac8    0x40  zero_init3.o [6]
  .text               ro code  0x08009b08    0x28  data_init.o [6]
  .iar.init_table     const    0x08009b30    0x2c  - Linker created -
  .text               ro code  0x08009b5c    0x1a  cmain.o [6]
  .text               ro code  0x08009b76     0x4  low_level_init.o [4]
  .text               ro code  0x08009b7a     0x4  exit.o [4]
  .text               ro code  0x08009b80     0xa  cexit.o [6]
  .text               ro code  0x08009b8c    0x10  startup_stm32f10x_md.o [2]
  .text               ro code  0x08009b9c     0xc  cstartup_M.o [6]
  .text               ro code  0x08009ba8     0x4  startup_stm32f10x_md.o [2]
  .text               ro code  0x08009bac     0x4  startup_stm32f10x_md.o [2]
  .text               ro code  0x08009bb0     0x4  startup_stm32f10x_md.o [2]
  .text               ro code  0x08009bb4     0x4  startup_stm32f10x_md.o [2]
  .text               ro code  0x08009bb8     0x4  startup_stm32f10x_md.o [2]
  .text               ro code  0x08009bbc     0x4  startup_stm32f10x_md.o [2]
  .text               ro code  0x08009bc0     0x4  startup_stm32f10x_md.o [2]
  .text               ro code  0x08009bc4     0x4  startup_stm32f10x_md.o [2]
  .text               ro code  0x08009bc8     0x4  startup_stm32f10x_md.o [2]
  .text               ro code  0x08009bcc     0x4  startup_stm32f10x_md.o [2]
  .text               ro code  0x08009bd0     0x4  startup_stm32f10x_md.o [2]
  .text               ro code  0x08009bd4     0x4  startup_stm32f10x_md.o [2]
  .text               ro code  0x08009bd8     0x4  startup_stm32f10x_md.o [2]
  .text               ro code  0x08009bdc     0x4  startup_stm32f10x_md.o [2]
  .text               ro code  0x08009be0     0x4  startup_stm32f10x_md.o [2]
  .text               ro code  0x08009be4     0x4  startup_stm32f10x_md.o [2]
  .text               ro code  0x08009be8     0x4  startup_stm32f10x_md.o [2]
  .text               ro code  0x08009bec     0x4  startup_stm32f10x_md.o [2]
  .text               ro code  0x08009bf0     0x4  startup_stm32f10x_md.o [2]
  .text               ro code  0x08009bf4     0x4  startup_stm32f10x_md.o [2]
  .text               ro code  0x08009bf8     0x4  startup_stm32f10x_md.o [2]
  .text               ro code  0x08009bfc     0x4  startup_stm32f10x_md.o [2]
  .text               ro code  0x08009c00     0x4  startup_stm32f10x_md.o [2]
  .text               ro code  0x08009c04     0x4  startup_stm32f10x_md.o [2]
  .text               ro code  0x08009c08     0x4  startup_stm32f10x_md.o [2]
  .text               ro code  0x08009c0c     0x4  startup_stm32f10x_md.o [2]
  .text               ro code  0x08009c10     0x4  startup_stm32f10x_md.o [2]
  .text               ro code  0x08009c14     0x4  startup_stm32f10x_md.o [2]
  .text               ro code  0x08009c18     0x4  startup_stm32f10x_md.o [2]
  .text               ro code  0x08009c1c     0x4  startup_stm32f10x_md.o [2]
  .text               ro code  0x08009c20     0x4  startup_stm32f10x_md.o [2]
  .text               ro code  0x08009c24     0x4  startup_stm32f10x_md.o [2]
  .text               ro code  0x08009c28     0x4  startup_stm32f10x_md.o [2]
  .text               ro code  0x08009c2c     0x4  startup_stm32f10x_md.o [2]
  .text               ro code  0x08009c30     0x4  startup_stm32f10x_md.o [2]
  .text               ro code  0x08009c34     0x4  startup_stm32f10x_md.o [2]
  .text               ro code  0x08009c38     0x4  startup_stm32f10x_md.o [2]
  .text               ro code  0x08009c3c     0x4  startup_stm32f10x_md.o [2]
  .text               ro code  0x08009c40     0x4  startup_stm32f10x_md.o [2]
  .text               ro code  0x08009c44     0x4  startup_stm32f10x_md.o [2]
  .text               ro code  0x08009c48     0x4  startup_stm32f10x_md.o [2]
  .text               ro code  0x08009c4c     0x4  startup_stm32f10x_md.o [2]
  .text               ro code  0x08009c50     0x4  startup_stm32f10x_md.o [2]
  .text               ro code  0x08009c54     0x4  startup_stm32f10x_md.o [2]
  .text               ro code  0x08009c58     0x4  startup_stm32f10x_md.o [2]
  .text               ro code  0x08009c5c     0x4  startup_stm32f10x_md.o [2]
  .text               ro code  0x08009c60     0x4  startup_stm32f10x_md.o [2]
  .text               ro code  0x08009c64     0x4  startup_stm32f10x_md.o [2]
  .text               ro code  0x08009c68     0x4  startup_stm32f10x_md.o [2]
  .text               ro code  0x08009c6c     0x4  startup_stm32f10x_md.o [2]
  .text               ro code  0x08009c70     0x4  startup_stm32f10x_md.o [2]
  .text               ro code  0x08009c74     0x4  startup_stm32f10x_md.o [2]
  .rodata             const    0x08009c78     0x0  zero_init3.o [6]
  .rodata             const    0x08009c78     0x0  packbits_init.o [6]
  Initializer bytes   const    0x08009c78   0x13c  <for P2 s0>
                             - 0x08009db4  0x9cc8

"P2":                                      0x3148
  P2 s0                        0x20000000   0x2a8  <Init block>
    .data             inited   0x20000000   0x100  user_internal_flash.o [2]
    __DLIB_PERTHREAD  inited   0x20000100    0x88  localeconv.o [4]
    __DLIB_PERTHREAD  inited   0x20000188    0x74  setlocale.o [4]
    .data             inited   0x200001fc    0x48  user_rf_app.o [2]
    .data             inited   0x20000244    0x3c  user_rf_app.o [2]
    .data             inited   0x20000280    0x14  stm32f10x_rcc.o [2]
    .data             inited   0x20000294    0x14  system_stm32f10x.o [2]
  .bss                zero     0x200002a8   0x640  os_cfg_app.o [2]
  .bss                zero     0x200008e8   0x300  os_cfg_app.o [2]
  .bss                zero     0x20000be8   0x220  user_debug_app.o [2]
  .bss                zero     0x20000e08   0x200  os_cfg_app.o [2]
  .bss                zero     0x20001008   0x200  os_cfg_app.o [2]
  .bss                zero     0x20001208   0x200  os_cfg_app.o [2]
  .bss                zero     0x20001408   0x200  os_cfg_app.o [2]
  .bss                zero     0x20001608   0x1d8  dlmalloc.o [4]
  .bss                zero     0x200017e0   0x19c  uart1_network_layer.o [2]
  .bss                zero     0x2000197c   0x19c  uart3_network_layer.o [2]
  .bss                zero     0x20001b18   0x11c  uart2_network_layer.o [2]
  .bss                zero     0x20001c34   0x100  os_cfg_app.o [2]
  .bss                zero     0x20001d34    0xf0  os_var.o [2]
  .bss                zero     0x20001e24    0x34  user_rf_app.o [2]
  .bss                zero     0x20001e58    0xd0  os_cfg_app.o [2]
  .bss                zero     0x20001f28    0xd0  os_cfg_app.o [2]
  .bss                zero     0x20001ff8    0xd0  os_cfg_app.o [2]
  .bss                zero     0x200020c8    0xd0  os_var.o [2]
  .bss                zero     0x20002198    0xd0  os_var.o [2]
  .bss                zero     0x20002268    0xd0  os_var.o [2]
  .bss                zero     0x20002338    0x88  os_cfg_app.o [2]
  .bss                zero     0x200023c0    0x88  os_cfg_app.o [2]
  .bss                zero     0x20002448    0x30  user_rtc_app.o [2]
  .bss                zero     0x20002478    0x18  cpu_core.o [2]
  .bss                zero     0x20002490    0x18  dlmalloc.o [4]
  .bss                zero     0x200024a8     0x8  Encoding.o [1]
  .bss                zero     0x200024b0     0x8  os_var.o [2]
  .bss                zero     0x200024b8     0x4  os_cpu_c.o [2]
  .bss                zero     0x200024bc     0x4  os_prio.o [2]
  .bss                zero     0x200024c0     0x4  os_var.o [2]
  .bss                zero     0x200024c4     0x4  os_var.o [2]
  .bss                zero     0x200024c8     0x4  os_var.o [2]
  .bss                zero     0x200024cc     0x4  os_var.o [2]
  .bss                zero     0x200024d0     0x4  os_var.o [2]
  .bss                zero     0x200024d4     0x4  os_var.o [2]
  .bss                zero     0x200024d8     0x4  os_var.o [2]
  .bss                zero     0x200024dc     0x4  os_var.o [2]
  .bss                zero     0x200024e0     0x4  os_var.o [2]
  .bss                zero     0x200024e4     0x4  os_var.o [2]
  .bss                zero     0x200024e8     0x4  os_var.o [2]
  .bss                zero     0x200024ec     0x4  os_var.o [2]
  .bss                zero     0x200024f0     0x4  os_var.o [2]
  .bss                zero     0x200024f4     0x4  os_var.o [2]
  .bss                zero     0x200024f8     0x4  os_var.o [2]
  .bss                zero     0x200024fc     0x4  os_var.o [2]
  .bss                zero     0x20002500     0x4  os_var.o [2]
  .bss                zero     0x20002504     0x4  os_var.o [2]
  .bss                zero     0x20002508     0x4  os_var.o [2]
  .bss                zero     0x2000250c     0x4  os_var.o [2]
  .bss                zero     0x20002510     0x4  os_var.o [2]
  .bss                zero     0x20002514     0x4  os_var.o [2]
  .bss                zero     0x20002518     0x4  os_var.o [2]
  .bss                zero     0x2000251c     0x4  os_var.o [2]
  .bss                zero     0x20002520     0x4  os_var.o [2]
  .bss                zero     0x20002524     0x4  os_var.o [2]
  .bss                zero     0x20002528     0x4  os_var.o [2]
  .bss                zero     0x2000252c     0x4  os_var.o [2]
  .bss                zero     0x20002530     0x4  xgetmemchunk.o [4]
  .bss                zero     0x20002534     0x2  os_var.o [2]
  .bss                zero     0x20002536     0x2  os_var.o [2]
  .bss                zero     0x20002538     0x2  os_var.o [2]
  .bss                zero     0x2000253a     0x2  os_var.o [2]
  .bss                zero     0x2000253c     0x2  os_var.o [2]
  .bss                zero     0x2000253e     0x2  os_var.o [2]
  .bss                zero     0x20002540     0x1  os_var.o [2]
  .bss                zero     0x20002541     0x1  os_var.o [2]
  .bss                zero     0x20002542     0x1  os_var.o [2]
  .bss                zero     0x20002543     0x1  os_var.o [2]
  .bss                zero     0x20002544     0x1  os_var.o [2]
  .bss                zero     0x20002545     0x1  os_var.o [2]
  .bss                zero     0x20002546     0x1  user_rf_app.o [2]
  CSTACK                       0x20002548   0x400  <Block>
    CSTACK            uninit   0x20002548   0x400  <Block tail>
  HEAP                         0x20002948   0x800  <Block>
    HEAP              uninit   0x20002948   0x800  <Block tail>
                             - 0x20003148  0x3148


*******************************************************************************
*** INIT TABLE
***

          Address     Size
          -------     ----
Zero (__iar_zero_init3)
    1 destination range, total size 0x229f:
          0x200002a8  0x229f

Copy/packbits (__iar_packbits_init3)
    1 source range, total size 0x13c (46% of destination):
          0x08009c78   0x13c
    1 destination range, total size 0x2a8:
          0x20000000   0x2a8



*******************************************************************************
*** MODULE SUMMARY
***

    Module                  ro code  ro data  rw data
    ------                  -------  -------  -------
D:\GitHub2\smart_box_q5\SMART_CARD\Project\App\rf: [1]
    Encoding.o                  908                 8
    -------------------------------------------------
    Total:                      908                 8

D:\GitHub2\smart_box_q5\SMART_CARD\Project\STM32F10x_StdPeriph_Template\EWARM\STM3210B-EVAL\Obj: [2]
    Common.o                    188
    DeviceManage.o            1 044
    Encoding_v8.o               312
    bsp.o                        12
    cpu_a.o                      42
    cpu_core.o                  148                24
    main.o                      120
    misc.o                      124
    os_cfg_app.o                  2       80    5 568
    os_core.o                 2 556
    os_cpu_a.o                  132
    os_cpu_c.o                  460                 4
    os_dbg.o                      2
    os_flag.o                    24
    os_mem.o                     24
    os_msg.o                    420
    os_mutex.o                  992
    os_prio.o                   120                 4
    os_q.o                       24
    os_sem.o                     24
    os_task.o                 2 100
    os_tick.o                   888
    os_time.o                   304
    os_tmr.o                    688
    os_var.o                                    1 002
    ringbuffer.o                428
    startup_stm32f10x_md.o      460
    stm32f10x_adc.o              42
    stm32f10x_bkp.o              72
    stm32f10x_exti.o             40
    stm32f10x_flash.o           308
    stm32f10x_gpio.o            288
    stm32f10x_it.o              120
    stm32f10x_iwdg.o             52
    stm32f10x_pwr.o              12
    stm32f10x_rcc.o             444        9       20
    stm32f10x_rtc.o             200
    stm32f10x_tim.o             620
    stm32f10x_usart.o           348
    system_stm32f10x.o           82       10       20
    uart1_network_layer.o       836               412
    uart2_network_layer.o       380               284
    uart3_network_layer.o       380               412
    user_debug_app.o            148               544
    user_internal_flash.o       668      118      256
    user_rf_app.o             8 068       61      185
    user_rtc_app.o              636                48
    -------------------------------------------------
    Total:                   25 382      278    8 783

command line: [3]
    -------------------------------------------------
    Total:

dl7M_tlf.a: [4]
    abort.o                       6
    div.o                        14
    dlmalloc.o                5 360               496
    exit.o                        4
    localeconv.o                108       64      136
    low_level_init.o              4
    memset.o                     20
    setlocale.o                  20       54      116
    vsnprint.o                   60
    xencoding_sb.o               96
    xgetmemchunk.o               44                 4
    xmbcurmax.o                  10
    xmbtowc.o                    32
    xprintffull.o             4 434
    xsnprout.o                   26
    xtls.o                        2
    xwctomb.o                    26
    -------------------------------------------------
    Total:                   10 266      118      752

m7M_tl.a: [5]
    DblAdd.o                    212
    DblCmpGe.o                   46
    DblCmpLe.o                   46
    DblDiv.o                    598
    DblMul.o                    418
    DblSub.o                    384
    DblToI32.o                   88
    I32ToDbl.o                   48
    xdnorm.o                     66
    xdscale.o                   268
    -------------------------------------------------
    Total:                    2 174

rt7M_tl.a: [6]
    ABImemclr4.o                  6
    ABImemcpy_unaligned.o       118
    ABImemset.o                 102
    ABImemset48.o                58
    I64DivMod.o                 238
    I64DivZer.o                   2
    cexit.o                      10
    cmain.o                      26
    cstartup_M.o                 12
    data_init.o                  40
    memchr.o                     88
    memcmp_unaligned.o           98
    packbits_init.o             208
    strchr.o                     22
    strlen.o                     54
    zero_init3.o                 64
    -------------------------------------------------
    Total:                    1 146

shb_l.a: [7]
    exit.o                       20
    -------------------------------------------------
    Total:                       20

    Gaps                         34        2
    Linker created                        44    3 072
-----------------------------------------------------
    Grand Total:             39 930      442   12 615


*******************************************************************************
*** ENTRY LIST
***

Entry                      Address   Size  Type      Object
-----                      -------   ----  ----      ------
.iar.init_table$$Base   0x08009b30          --   Gb  - Linker created -
.iar.init_table$$Limit  0x08009b5c          --   Gb  - Linker created -
?main                   0x08009b5d         Code  Gb  cmain.o [6]
ADC1_2_IRQHandler       0x080017c5   0xfe  Code  Gb  user_rf_app.o [2]
ADCPrescTable           0x20000290    0x4  Data  Lc  stm32f10x_rcc.o [2]
ADC_Cmd                 0x08003d05   0x16  Code  Gb  stm32f10x_adc.o [2]
ADC_GetConversionValue  0x08003d1b    0x6  Code  Gb  stm32f10x_adc.o [2]
ADC_GetFlagStatus       0x08003d21    0xe  Code  Gb  stm32f10x_adc.o [2]
AHBPrescTable           0x20000294   0x10  Data  Gb  system_stm32f10x.o [2]
APBAHBPrescTable        0x20000280   0x10  Data  Lc  stm32f10x_rcc.o [2]
ActiveImmo              0x0800129b   0xcc  Code  Gb  user_rf_app.o [2]
BKP_DeInit              0x0800880d   0x12  Code  Gb  stm32f10x_bkp.o [2]
BKP_ReadBackupRegister  0x08008837   0x18  Code  Gb  stm32f10x_bkp.o [2]
BKP_WriteBackupRegister
                        0x0800881f   0x18  Code  Gb  stm32f10x_bkp.o [2]
BasePlus                0x080006d8   0x2c  Data  Gb  user_rf_app.o [2]
BusFault_Handler        0x08009999    0x8  Code  Gb  stm32f10x_it.o [2]
CPU_CntLeadZeros        0x0800457b         Code  Gb  cpu_a.o [2]
CPU_IntDis              0x08004565         Code  Gb  cpu_a.o [2]
CPU_IntDisMeasCtr       0x20002478    0x2  Data  Gb  cpu_core.o [2]
CPU_IntDisMeasMaxCalc   0x0800460f   0x10  Code  Lc  cpu_core.o [2]
CPU_IntDisMeasMaxCurGet
                        0x080045ab   0x16  Code  Gb  cpu_core.o [2]
CPU_IntDisMeasMaxCurReset
                        0x08004591   0x1a  Code  Gb  cpu_core.o [2]
CPU_IntDisMeasMaxCur_cnts
                        0x20002488    0x4  Data  Gb  cpu_core.o [2]
CPU_IntDisMeasMax_cnts  0x2000248c    0x4  Data  Gb  cpu_core.o [2]
CPU_IntDisMeasOvrhd_cnts
                        0x20002484    0x4  Data  Gb  cpu_core.o [2]
CPU_IntDisMeasStart     0x080045c1   0x1e  Code  Gb  cpu_core.o [2]
CPU_IntDisMeasStart_cnts
                        0x2000247c    0x4  Data  Gb  cpu_core.o [2]
CPU_IntDisMeasStop      0x080045df   0x30  Code  Gb  cpu_core.o [2]
CPU_IntDisMeasStop_cnts
                        0x20002480    0x4  Data  Gb  cpu_core.o [2]
CPU_IntDisNestCtr       0x2000247a    0x2  Data  Gb  cpu_core.o [2]
CPU_IntEn               0x08004569         Code  Gb  cpu_a.o [2]
CPU_RevBits             0x08004581         Code  Gb  cpu_a.o [2]
CPU_SR_Restore          0x08004575         Code  Gb  cpu_a.o [2]
CPU_SR_Save             0x0800456d         Code  Gb  cpu_a.o [2]
CPU_TS_TmrRd            0x0800586d    0x6  Code  Gb  bsp.o [2]
CPU_WaitForExcept       0x0800458b         Code  Gb  cpu_a.o [2]
CPU_WaitForInt          0x08004587         Code  Gb  cpu_a.o [2]
CSTACK$$Base            0x20002548          --   Gb  - Linker created -
CSTACK$$Limit           0x20002948          --   Gb  - Linker created -
Cal_crc8                0x08003425   0x1e  Code  Gb  user_internal_flash.o [2]
Char2Long               0x08003729   0x20  Code  Gb  Encoding_v8.o [2]
CheckRemoteValueIsAllow
                        0x08000c93  0x146  Code  Lc  user_rf_app.o [2]
ClearKeyValueCount      0x20000210    0x1  Data  Lc  user_rf_app.o [2]
CrcTable                0x20000000  0x100  Data  Gb  user_internal_flash.o [2]
DBCM_46E9               0x08003767   0x16  Code  Gb  Encoding_v8.o [2]
DM_post_one_task_msg    0x080032ab   0x72  Code  Gb  DeviceManage.o [2]
DM_post_pwr_on_to_tasks
                        0x0800331d   0x38  Code  Lc  DeviceManage.o [2]
Data                    0x200001fc   0x10  Data  Lc  user_rf_app.o [2]
Data_58F0               0x08003850   0x10  Data  Gb  Encoding_v8.o [2]
DebugMon_Handler        0x080099ab    0x2  Code  Gb  stm32f10x_it.o [2]
DelayXms                0x0800011b   0x10  Code  Gb  user_rf_app.o [2]
DeviceManageTask        0x08003355   0x56  Code  Gb  DeviceManage.o [2]
DeviceManageTask_Stk    0x20000e08  0x200  Data  Gb  os_cfg_app.o [2]
DeviceManageTask_Tcb    0x20001e58   0xd0  Data  Gb  os_cfg_app.o [2]
DriveAlarm              0x080001b1   0x3c  Code  Gb  user_rf_app.o [2]
EXTI0_IRQHandler        0x080099b1   0x18  Code  Gb  stm32f10x_it.o [2]
EXTI1_IRQHandler        0x080099c9   0x18  Code  Gb  stm32f10x_it.o [2]
EXTI_ClearITPendingBit  0x08009a15    0x6  Code  Gb  stm32f10x_exti.o [2]
EXTI_GetITStatus        0x080099fd   0x18  Code  Gb  stm32f10x_exti.o [2]
FLASH_ClearFlag         0x08006ff7    0x6  Code  Gb  stm32f10x_flash.o [2]
FLASH_ErasePage         0x08006f69   0x3a  Code  Gb  stm32f10x_flash.o [2]
FLASH_GetBank1Status    0x08006ffd   0x22  Code  Gb  stm32f10x_flash.o [2]
FLASH_Lock              0x08006f5b    0xe  Code  Gb  stm32f10x_flash.o [2]
FLASH_PrefetchBufferCmd
                        0x08006f35   0x14  Code  Gb  stm32f10x_flash.o [2]
FLASH_ProgramMoreWord   0x08003443   0x22  Code  Gb  user_internal_flash.o [2]
FLASH_ProgramWord       0x08006fa3   0x54  Code  Gb  stm32f10x_flash.o [2]
FLASH_ReadMoreWord      0x08003465   0x1a  Code  Gb  user_internal_flash.o [2]
FLASH_ReadRemoteID      0x080035e9   0x46  Code  Gb  user_internal_flash.o [2]
FLASH_ReadRemoteLOQ     0x0800362f   0x70  Code  Gb  user_internal_flash.o [2]
FLASH_SetLatency        0x08006f25   0x10  Code  Gb  stm32f10x_flash.o [2]
FLASH_Unlock            0x08006f49   0x12  Code  Gb  stm32f10x_flash.o [2]
FLASH_WaitForLastOperation
                        0x08007039   0x20  Code  Gb  stm32f10x_flash.o [2]
FLASH_WriteRemoteID     0x0800347f   0x90  Code  Gb  user_internal_flash.o [2]
FLASH_WriteRemoteLOQ    0x0800350f   0xda  Code  Gb  user_internal_flash.o [2]
GPIO_Configuration      0x08000415  0x118  Code  Gb  user_rf_app.o [2]
GPIO_Init               0x080024a1   0x9e  Code  Gb  stm32f10x_gpio.o [2]
GPIO_PinRemapConfig     0x08002555   0x68  Code  Gb  stm32f10x_gpio.o [2]
GPIO_ReadInputDataBit   0x0800253f    0xe  Code  Gb  stm32f10x_gpio.o [2]
GPIO_ResetBits          0x08002551    0x4  Code  Gb  stm32f10x_gpio.o [2]
GPIO_SetBits            0x0800254d    0x4  Code  Gb  stm32f10x_gpio.o [2]
GpsTask_Tcb             0x20001f28   0xd0  Data  Gb  os_cfg_app.o [2]
HEAP$$Base              0x20002948          --   Gb  - Linker created -
HEAP$$Limit             0x20003148          --   Gb  - Linker created -
HardFault_Handler       0x08009989    0x8  Code  Gb  stm32f10x_it.o [2]
IV8_Decrypt             0x0800377d   0xcc  Code  Gb  Encoding_v8.o [2]
IWDG_Configuration      0x08001915   0x24  Code  Gb  user_rf_app.o [2]
IWDG_Enable             0x080025dd    0xa  Code  Gb  stm32f10x_iwdg.o [2]
IWDG_ReloadCounter      0x080025d3    0xa  Code  Gb  stm32f10x_iwdg.o [2]
IWDG_SetPrescaler       0x080025c7    0x6  Code  Gb  stm32f10x_iwdg.o [2]
IWDG_SetReload          0x080025cd    0x6  Code  Gb  stm32f10x_iwdg.o [2]
IWDG_WriteAccessCmd     0x080025c1    0x6  Code  Gb  stm32f10x_iwdg.o [2]
InStream_Read           0x0800983d   0x22  Code  Lc  packbits_init.o [6]
InfoPrintf              0x08002421   0x6c  Code  Gb  user_debug_app.o [2]
KEY_LOCK_L_time_stamp   0x20000234    0x4  Data  Lc  user_rf_app.o [2]
KEY_TRUNK_L_time_stamp  0x2000022c    0x4  Data  Lc  user_rf_app.o [2]
KEY_UNLOCK_L_time_stamp
                        0x20000230    0x4  Data  Lc  user_rf_app.o [2]
LFSendData              0x0800052d  0x1aa  Code  Gb  user_rf_app.o [2]
LoadInt                 0x08007cb1   0x6e  Code  Lc  xprintffull.o [4]
Long2Char               0x08003749   0x1e  Code  Gb  Encoding_v8.o [2]
MCURegID                0x20000224    0x4  Data  Lc  user_rf_app.o [2]
MemManage_Handler       0x08009991    0x8  Code  Gb  stm32f10x_it.o [2]
NMI_Handler             0x08009987    0x2  Code  Gb  stm32f10x_it.o [2]
NVIC_Configuration      0x080030f7   0xb0  Code  Gb  DeviceManage.o [2]
NVIC_Init               0x08007063   0x5c  Code  Gb  misc.o [2]
NVIC_PriorityGroupConfig
                        0x08007059    0xa  Code  Gb  misc.o [2]
OSCfg_ISRStk            0x20001208  0x200  Data  Gb  os_cfg_app.o [2]
OSCfg_ISRStkBasePtr     0x08009a84    0x4  Data  Gb  os_cfg_app.o [2]
OSCfg_ISRStkSize        0x08009a88    0x4  Data  Gb  os_cfg_app.o [2]
OSCfg_IdleTaskStk       0x20001008  0x200  Data  Gb  os_cfg_app.o [2]
OSCfg_IdleTaskStkBasePtr
                        0x08009a78    0x4  Data  Gb  os_cfg_app.o [2]
OSCfg_IdleTaskStkLimit  0x08009a7c    0x4  Data  Gb  os_cfg_app.o [2]
OSCfg_IdleTaskStkSize   0x08009a80    0x4  Data  Gb  os_cfg_app.o [2]
OSCfg_Init              0x080057e7    0x2  Code  Gb  os_cfg_app.o [2]
OSCfg_MsgPool           0x200002a8  0x640  Data  Gb  os_cfg_app.o [2]
OSCfg_MsgPoolBasePtr    0x08009a90    0x4  Data  Gb  os_cfg_app.o [2]
OSCfg_MsgPoolSize       0x08009a8c    0x2  Data  Gb  os_cfg_app.o [2]
OSCfg_StkSizeMin        0x08009a94    0x4  Data  Gb  os_cfg_app.o [2]
OSCfg_TickRate_Hz       0x08009a98    0x4  Data  Gb  os_cfg_app.o [2]
OSCfg_TickTaskPrio      0x08009a9c    0x1  Data  Gb  os_cfg_app.o [2]
OSCfg_TickTaskStk       0x20001408  0x200  Data  Gb  os_cfg_app.o [2]
OSCfg_TickTaskStkBasePtr
                        0x08009aa0    0x4  Data  Gb  os_cfg_app.o [2]
OSCfg_TickTaskStkLimit  0x08009aa4    0x4  Data  Gb  os_cfg_app.o [2]
OSCfg_TickTaskStkSize   0x08009aa8    0x4  Data  Gb  os_cfg_app.o [2]
OSCfg_TickWheel         0x20002338   0x88  Data  Gb  os_cfg_app.o [2]
OSCfg_TickWheelSize     0x08009aac    0x2  Data  Gb  os_cfg_app.o [2]
OSCfg_TmrTaskPrio       0x08009ab0    0x1  Data  Gb  os_cfg_app.o [2]
OSCfg_TmrTaskRate_Hz    0x08009ab4    0x4  Data  Gb  os_cfg_app.o [2]
OSCfg_TmrTaskStk        0x200008e8  0x300  Data  Gb  os_cfg_app.o [2]
OSCfg_TmrTaskStkBasePtr
                        0x08009ab8    0x4  Data  Gb  os_cfg_app.o [2]
OSCfg_TmrTaskStkLimit   0x08009abc    0x4  Data  Gb  os_cfg_app.o [2]
OSCfg_TmrTaskStkSize    0x08009ac0    0x4  Data  Gb  os_cfg_app.o [2]
OSCfg_TmrWheel          0x200023c0   0x88  Data  Gb  os_cfg_app.o [2]
OSCfg_TmrWheelSize      0x08009ac4    0x2  Data  Gb  os_cfg_app.o [2]
OSFlagDbgListPtr        0x200024e0    0x4  Data  Gb  os_var.o [2]
OSFlagQty               0x20002534    0x2  Data  Gb  os_var.o [2]
OSIdleTaskCtr           0x200024dc    0x4  Data  Gb  os_var.o [2]
OSIdleTaskHook          0x0800499d    0xc  Code  Gb  os_cpu_c.o [2]
OSIdleTaskTCB           0x200020c8   0xd0  Data  Gb  os_var.o [2]
OSInit                  0x08002615  0x122  Code  Gb  os_core.o [2]
OSInitHook              0x080049a9   0x14  Code  Gb  os_cpu_c.o [2]
OSIntExit               0x08002737   0xa8  Code  Gb  os_core.o [2]
OSIntNestingCtr         0x20002540    0x1  Data  Gb  os_var.o [2]
OSMemDbgListPtr         0x200024e4    0x4  Data  Gb  os_var.o [2]
OSMemQty                0x20002536    0x2  Data  Gb  os_var.o [2]
OSMsgPool               0x200024b0    0x8  Data  Gb  os_var.o [2]
OSMutexCreate           0x08004e9d   0x72  Code  Gb  os_mutex.o [2]
OSMutexDbgListPtr       0x200024e8    0x4  Data  Gb  os_var.o [2]
OSMutexPend             0x08004f11  0x1ea  Code  Gb  os_mutex.o [2]
OSMutexPost             0x080050fb  0x132  Code  Gb  os_mutex.o [2]
OSMutexQty              0x20002538    0x2  Data  Gb  os_var.o [2]
OSPrioCur               0x20002542    0x1  Data  Gb  os_var.o [2]
OSPrioHighRdy           0x20002543    0x1  Data  Gb  os_var.o [2]
OSPrioTbl               0x200024bc    0x4  Data  Gb  os_prio.o [2]
OSQDbgListPtr           0x200024ec    0x4  Data  Gb  os_var.o [2]
OSQQty                  0x2000253a    0x2  Data  Gb  os_var.o [2]
OSRdyList               0x20001d34   0xf0  Data  Gb  os_var.o [2]
OSRunning               0x20002541    0x1  Data  Gb  os_var.o [2]
OSSched                 0x080027df   0x78  Code  Gb  os_core.o [2]
OSSchedLock             0x08002857   0x5e  Code  Gb  os_core.o [2]
OSSchedLockNestingCtr   0x20002544    0x1  Data  Gb  os_var.o [2]
OSSchedLockTimeBegin    0x200024f0    0x4  Data  Gb  os_var.o [2]
OSSchedLockTimeMax      0x200024f4    0x4  Data  Gb  os_var.o [2]
OSSchedLockTimeMaxCur   0x200024f8    0x4  Data  Gb  os_var.o [2]
OSSchedRoundRobinDfltTimeQuanta
                        0x200024fc    0x4  Data  Gb  os_var.o [2]
OSSchedRoundRobinEn     0x20002545    0x1  Data  Gb  os_var.o [2]
OSSchedRoundRobinYield  0x0800292f   0x9c  Code  Gb  os_core.o [2]
OSSchedUnlock           0x080028b5   0x7a  Code  Gb  os_core.o [2]
OSSemDbgListPtr         0x20002500    0x4  Data  Gb  os_var.o [2]
OSSemQty                0x2000253c    0x2  Data  Gb  os_var.o [2]
OSStart                 0x080029cb   0x4e  Code  Gb  os_core.o [2]
OSStartHighRdy          0x080057e9         Code  Gb  os_cpu_a.o [2]
OSTCBCurPtr             0x20002528    0x4  Data  Gb  os_var.o [2]
OSTCBHighRdyPtr         0x2000252c    0x4  Data  Gb  os_var.o [2]
OSTaskCreate            0x08003d31  0x178  Code  Gb  os_task.o [2]
OSTaskCreateHook        0x080049bd    0xc  Code  Gb  os_cpu_c.o [2]
OSTaskCtxSwCtr          0x20002504    0x4  Data  Gb  os_var.o [2]
OSTaskDbgListPtr        0x20002508    0x4  Data  Gb  os_var.o [2]
OSTaskDel               0x08003ea9   0xdc  Code  Gb  os_task.o [2]
OSTaskDelHook           0x080049c9    0xc  Code  Gb  os_cpu_c.o [2]
OSTaskQPend             0x08003f85  0x184  Code  Gb  os_task.o [2]
OSTaskQPost             0x08004109   0x24  Code  Gb  os_task.o [2]
OSTaskQty               0x2000253e    0x2  Data  Gb  os_var.o [2]
OSTaskReturnHook        0x080049d5    0xc  Code  Gb  os_cpu_c.o [2]
OSTaskSemPend           0x0800412d  0x154  Code  Gb  os_task.o [2]
OSTaskSemPost           0x08004281   0x1a  Code  Gb  os_task.o [2]
OSTaskStkInit           0x080049e1   0x80  Code  Gb  os_cpu_c.o [2]
OSTaskSwHook            0x08004a61   0x6e  Code  Gb  os_cpu_c.o [2]
OSTickCtr               0x2000250c    0x4  Data  Gb  os_var.o [2]
OSTickTaskTCB           0x20002198   0xd0  Data  Gb  os_var.o [2]
OSTickTaskTimeMax       0x20002510    0x4  Data  Gb  os_var.o [2]
OSTimeDly               0x080022dd   0xa6  Code  Gb  os_time.o [2]
OSTimeGet               0x08002383   0x24  Code  Gb  os_time.o [2]
OSTimeTick              0x080023a7   0x3e  Code  Gb  os_time.o [2]
OSTimeTickHook          0x08004acf    0xc  Code  Gb  os_cpu_c.o [2]
OSTmrDbgListPtr         0x20002514    0x4  Data  Gb  os_var.o [2]
OSTmrTaskTCB            0x20002268   0xd0  Data  Gb  os_var.o [2]
OSTmrTaskTimeMax        0x20002518    0x4  Data  Gb  os_var.o [2]
OSTmrTickCtr            0x2000251c    0x4  Data  Gb  os_var.o [2]
OSTmrUpdateCnt          0x20002520    0x4  Data  Gb  os_var.o [2]
OSTmrUpdateCtr          0x20002524    0x4  Data  Gb  os_var.o [2]
OS_AppIdleTaskHookPtr   0x200024cc    0x4  Data  Gb  os_var.o [2]
OS_AppStatTaskHookPtr   0x200024d0    0x4  Data  Gb  os_var.o [2]
OS_AppTaskCreateHookPtr
                        0x200024c0    0x4  Data  Gb  os_var.o [2]
OS_AppTaskDelHookPtr    0x200024c4    0x4  Data  Gb  os_var.o [2]
OS_AppTaskReturnHookPtr
                        0x200024c8    0x4  Data  Gb  os_var.o [2]
OS_AppTaskSwHookPtr     0x200024d4    0x4  Data  Gb  os_var.o [2]
OS_AppTimeTickHookPtr   0x200024d8    0x4  Data  Gb  os_var.o [2]
OS_CPU_ExceptStkBase    0x200024b8    0x4  Data  Gb  os_cpu_c.o [2]
OS_CPU_PendSVHandler    0x08005807         Code  Gb  os_cpu_a.o [2]
OS_CPU_SysTickHandler   0x08004adb   0x2a  Code  Gb  os_cpu_c.o [2]
OS_CPU_SysTickInit      0x08004b05   0x22  Code  Gb  os_cpu_c.o [2]
OS_Dbg_Init             0x080057e5    0x2  Code  Gb  os_dbg.o [2]
OS_FlagInit             0x08005331    0xe  Code  Gb  os_flag.o [2]
OS_IdleTask             0x08002a19   0x26  Code  Gb  os_core.o [2]
OS_IdleTaskInit         0x08002a3f   0x4c  Code  Gb  os_core.o [2]
OS_MemInit              0x08005349    0xe  Code  Gb  os_mem.o [2]
OS_MsgPoolCreate        0x08005361   0x38  Code  Gb  os_msg.o [2]
OS_MsgPoolInit          0x08005399   0x3c  Code  Gb  os_msg.o [2]
OS_MsgQFreeAll          0x080053d5   0x34  Code  Gb  os_msg.o [2]
OS_MsgQGet              0x08005417   0x60  Code  Gb  os_msg.o [2]
OS_MsgQInit             0x08005409    0xe  Code  Gb  os_msg.o [2]
OS_MsgQPut              0x08005477   0x80  Code  Gb  os_msg.o [2]
OS_MutexDbgListAdd      0x0800522d   0x20  Code  Gb  os_mutex.o [2]
OS_MutexInit            0x0800524d    0xe  Code  Gb  os_mutex.o [2]
OS_Pend                 0x08002a8b   0x50  Code  Gb  os_core.o [2]
OS_PendDataInit         0x08002adb   0x28  Code  Gb  os_core.o [2]
OS_PendDbgNameAdd       0x08002b03   0x3e  Code  Gb  os_core.o [2]
OS_PendDbgNameRemove    0x08002b41   0x18  Code  Gb  os_core.o [2]
OS_PendListChangePrio   0x08002b59   0x34  Code  Gb  os_core.o [2]
OS_PendListInit         0x08002b8d    0xa  Code  Gb  os_core.o [2]
OS_PendListInsertPrio   0x08002b97   0x66  Code  Gb  os_core.o [2]
OS_PendListRemove       0x08002bfd   0x26  Code  Gb  os_core.o [2]
OS_PendListRemove1      0x08002c23   0x3c  Code  Gb  os_core.o [2]
OS_Post                 0x08002c5f   0x94  Code  Gb  os_core.o [2]
OS_Post1                0x08002cf3   0x26  Code  Gb  os_core.o [2]
OS_PrioGetHighest       0x080052cb   0x1c  Code  Gb  os_prio.o [2]
OS_PrioInit             0x080052b9   0x12  Code  Gb  os_prio.o [2]
OS_PrioInsert           0x080052e7   0x22  Code  Gb  os_prio.o [2]
OS_PrioRemove           0x08005309   0x24  Code  Gb  os_prio.o [2]
OS_QInit                0x08005505    0xe  Code  Gb  os_q.o [2]
OS_RdyListInit          0x08002d19   0x1e  Code  Gb  os_core.o [2]
OS_RdyListInsert        0x08002d37   0x24  Code  Gb  os_core.o [2]
OS_RdyListInsertHead    0x08002d5b   0x38  Code  Gb  os_core.o [2]
OS_RdyListInsertTail    0x08002d93   0x36  Code  Gb  os_core.o [2]
OS_RdyListMoveHeadToTail
                        0x08002dd1   0x3e  Code  Gb  os_core.o [2]
OS_RdyListRemove        0x08002e0f   0x5a  Code  Gb  os_core.o [2]
OS_SchedLockTimeMeasStart
                        0x08002e69   0x16  Code  Gb  os_core.o [2]
OS_SchedLockTimeMeasStop
                        0x08002e7f   0x30  Code  Gb  os_core.o [2]
OS_SchedRoundRobin      0x08002eaf   0x68  Code  Gb  os_core.o [2]
OS_SemInit              0x0800551d    0xe  Code  Gb  os_sem.o [2]
OS_TaskBlock            0x08002f95   0x38  Code  Gb  os_core.o [2]
OS_TaskDbgListAdd       0x0800429b   0x22  Code  Gb  os_task.o [2]
OS_TaskDbgListRemove    0x080042bd   0x3e  Code  Gb  os_task.o [2]
OS_TaskInit             0x080042fb   0x12  Code  Gb  os_task.o [2]
OS_TaskInitTCB          0x0800430d   0xa6  Code  Gb  os_task.o [2]
OS_TaskQPost            0x080043b9   0xa8  Code  Gb  os_task.o [2]
OS_TaskRdy              0x08002fcd   0x1a  Code  Gb  os_core.o [2]
OS_TaskReturn           0x08004461   0x14  Code  Gb  os_task.o [2]
OS_TaskSemPost          0x0800447d   0xbc  Code  Gb  os_task.o [2]
OS_TickListInit         0x080046a3   0x20  Code  Gb  os_tick.o [2]
OS_TickListInsert       0x080046c3   0xf0  Code  Gb  os_tick.o [2]
OS_TickListRemove       0x080047b3   0x3a  Code  Gb  os_tick.o [2]
OS_TickListUpdate       0x080047ed  0x16c  Code  Gb  os_tick.o [2]
OS_TickTask             0x08004625   0x26  Code  Gb  os_tick.o [2]
OS_TickTaskInit         0x0800464b   0x58  Code  Gb  os_tick.o [2]
OS_TmrInit              0x08005535   0xae  Code  Gb  os_tmr.o [2]
OS_TmrLink              0x080055e3   0xb6  Code  Gb  os_tmr.o [2]
OS_TmrTask              0x080056e9   0xa6  Code  Gb  os_tmr.o [2]
OS_TmrUnlink            0x08005699   0x4e  Code  Gb  os_tmr.o [2]
OnRfRev                 0x0800136d   0xe2  Code  Lc  user_rf_app.o [2]
OnStudyRemote           0x08001459  0x348  Code  Lc  user_rf_app.o [2]
PWR_BackupAccessCmd     0x08008801    0x6  Code  Gb  stm32f10x_pwr.o [2]
PendSV_Handler          0x080099ad    0x2  Code  Gb  stm32f10x_it.o [2]
RCC_APB1PeriphClockCmd  0x08006e9b   0x16  Code  Gb  stm32f10x_rcc.o [2]
RCC_APB2PeriphClockCmd  0x08006e85   0x16  Code  Gb  stm32f10x_rcc.o [2]
RCC_BackupResetCmd      0x08006eb1    0x6  Code  Gb  stm32f10x_rcc.o [2]
RCC_ClearFlag           0x08006edb    0xc  Code  Gb  stm32f10x_rcc.o [2]
RCC_Configuration       0x0800309d   0x5a  Code  Gb  DeviceManage.o [2]
RCC_DeInit              0x08006d69   0x32  Code  Gb  stm32f10x_rcc.o [2]
RCC_GetClocksFreq       0x08006dfb   0x8a  Code  Gb  stm32f10x_rcc.o [2]
RCC_GetFlagStatus       0x08006eb7   0x24  Code  Gb  stm32f10x_rcc.o [2]
RCC_GetSYSCLKSource     0x08006daf    0xa  Code  Gb  stm32f10x_rcc.o [2]
RCC_HCLKConfig          0x08006db9    0xe  Code  Gb  stm32f10x_rcc.o [2]
RCC_HSICmd              0x08006d9b    0x6  Code  Gb  stm32f10x_rcc.o [2]
RCC_LSICmd              0x08006de5    0x6  Code  Gb  stm32f10x_rcc.o [2]
RCC_PCLK1Config         0x08006dc7    0xe  Code  Gb  stm32f10x_rcc.o [2]
RCC_PCLK2Config         0x08006dd5   0x10  Code  Gb  stm32f10x_rcc.o [2]
RCC_RTCCLKCmd           0x08006df5    0x6  Code  Gb  stm32f10x_rcc.o [2]
RCC_RTCCLKConfig        0x08006deb    0xa  Code  Gb  stm32f10x_rcc.o [2]
RCC_SYSCLKConfig        0x08006da1    0xe  Code  Gb  stm32f10x_rcc.o [2]
RTC_ClearITPendingBit   0x080088fd    0xc  Code  Gb  stm32f10x_rtc.o [2]
RTC_Configuration       0x080070d5   0x58  Code  Gb  user_rtc_app.o [2]
RTC_Configuration1      0x0800712d   0x54  Code  Gb  user_rtc_app.o [2]
RTC_EnterConfigMode     0x0800886b    0xc  Code  Gb  stm32f10x_rtc.o [2]
RTC_ExitConfigMode      0x08008877    0xe  Code  Gb  stm32f10x_rtc.o [2]
RTC_GetCounter          0x08008885    0xc  Code  Gb  stm32f10x_rtc.o [2]
RTC_GetITStatus         0x080088df   0x1e  Code  Gb  stm32f10x_rtc.o [2]
RTC_IRQHandler          0x080099e1   0x1c  Code  Gb  stm32f10x_it.o [2]
RTC_ITConfig            0x08008855   0x16  Code  Gb  stm32f10x_rtc.o [2]
RTC_SetCounter          0x08008891   0x16  Code  Gb  stm32f10x_rtc.o [2]
RTC_SetPrescaler        0x080088a7   0x1a  Code  Gb  stm32f10x_rtc.o [2]
RTC_WaitForLastTask     0x080088c1    0xa  Code  Gb  stm32f10x_rtc.o [2]
RTC_WaitForSynchro      0x080088cb   0x14  Code  Gb  stm32f10x_rtc.o [2]
RangData                0x2000020c    0x4  Data  Gb  user_rf_app.o [2]
RangVlue                0x08000869   0x40  Code  Gb  user_rf_app.o [2]
Region$$Table$$Base     0x08009b30          --   Gb  - Linker created -
Region$$Table$$Limit    0x08009b5c          --   Gb  - Linker created -
Remote                  0x20001e24   0x34  Data  Lc  user_rf_app.o [2]
RemoteKeyActive         0x08000fa1  0x2fa  Code  Lc  user_rf_app.o [2]
RemoteKeyValue          0x2000021c    0x2  Data  Lc  user_rf_app.o [2]
RemoteLastData          0x20000211    0x1  Data  Lc  user_rf_app.o [2]
RfTask                  0x08001939  0x1e4  Code  Gb  user_rf_app.o [2]
RfTaskMsg_handle        0x080017ab   0x16  Code  Lc  user_rf_app.o [2]
Rtc_Time_Adjust         0x0800718f   0x16  Code  Gb  user_rtc_app.o [2]
SVC_Handler             0x080099a9    0x2  Code  Gb  stm32f10x_it.o [2]
SendAwakeLF             0x08000705   0x5e  Code  Gb  user_rf_app.o [2]
SendStartLF             0x080008a9   0x6a  Code  Gb  user_rf_app.o [2]
SendStudyLF             0x0800079d   0x8c  Code  Gb  user_rf_app.o [2]
SetSysClock             0x08009a75    0x2  Code  Lc  system_stm32f10x.o [2]
SystemCoreClock         0x200002a4    0x4  Data  Gb  system_stm32f10x.o [2]
SystemInit              0x08009a25   0x40  Code  Gb  system_stm32f10x.o [2]
TIM1_BRK_IRQHandler     0x080099af    0x2  Code  Gb  stm32f10x_it.o [2]
TIM2_IRQHandler         0x080000ed   0x2e  Code  Gb  user_rf_app.o [2]
TIM2_counting_now_flag  0x20002546    0x1  Data  Gb  user_rf_app.o [2]
TIM_ARRPreloadConfig    0x0800223f   0x18  Code  Gb  stm32f10x_tim.o [2]
TIM_CCxCmd              0x08002275   0x1a  Code  Gb  stm32f10x_tim.o [2]
TIM_ClearITPendingBit   0x080022af    0x6  Code  Gb  stm32f10x_tim.o [2]
TIM_Cmd                 0x080021f7   0x18  Code  Gb  stm32f10x_tim.o [2]
TIM_Configuration       0x080031a7   0xca  Code  Gb  DeviceManage.o [2]
TIM_CtrlPWMOutputs      0x0800220f   0x1c  Code  Gb  stm32f10x_tim.o [2]
TIM_GetCounter          0x08002293    0x4  Code  Gb  stm32f10x_tim.o [2]
TIM_GetITStatus         0x08002297   0x18  Code  Gb  stm32f10x_tim.o [2]
TIM_ITConfig            0x0800222b   0x14  Code  Gb  stm32f10x_tim.o [2]
TIM_OC1Init             0x08002101   0x82  Code  Gb  stm32f10x_tim.o [2]
TIM_OC1PreloadConfig    0x08002257    0xe  Code  Gb  stm32f10x_tim.o [2]
TIM_OC2Init             0x08002183   0x74  Code  Gb  stm32f10x_tim.o [2]
TIM_OC2PreloadConfig    0x08002265   0x10  Code  Gb  stm32f10x_tim.o [2]
TIM_SetCounter          0x0800228f    0x4  Code  Gb  stm32f10x_tim.o [2]
TIM_TimeBaseInit        0x08002071   0x90  Code  Gb  stm32f10x_tim.o [2]
Time_Regulate           0x08007181    0xe  Code  Gb  user_rtc_app.o [2]
USART1_IRQHandler       0x08004ca1   0x3a  Code  Gb  uart1_network_layer.o [2]
USART2_IRQHandler       0x080095e9   0x3a  Code  Gb  uart2_network_layer.o [2]
USART3_IRQHandler       0x08009765   0x3a  Code  Gb  uart3_network_layer.o [2]
USART_Cmd               0x08007411   0x18  Code  Gb  stm32f10x_usart.o [2]
USART_GetFlagStatus     0x0800746b    0xe  Code  Gb  stm32f10x_usart.o [2]
USART_GetITStatus       0x08007479   0x48  Code  Gb  stm32f10x_usart.o [2]
USART_ITConfig          0x08007429   0x3a  Code  Gb  stm32f10x_usart.o [2]
USART_Init              0x08007365   0xa4  Code  Gb  stm32f10x_usart.o [2]
USART_SendData          0x08007463    0x8  Code  Gb  stm32f10x_usart.o [2]
UhfRevData_V7           0x08000961  0x332  Code  Lc  user_rf_app.o [2]
UsageFault_Handler      0x080099a1    0x8  Code  Gb  stm32f10x_it.o [2]
V7_Decrypt              0x080039af   0x36  Code  Gb  Encoding.o [1]
ValueRange              0x08000945   0x1c  Code  Lc  user_rf_app.o [2]
_EncodingSb_Mbtowc      0x08009423   0x30  Code  Gb  xencoding_sb.o [4]
_EncodingSb_Wctomb      0x08009409   0x1a  Code  Gb  xencoding_sb.o [4]
_GenldFull              0x0800853b  0x24c  Code  Lc  xprintffull.o [4]
_IsdstStr               0x2000018c    0x4  Data  Gb  setlocale.o [4]
_LdtobFull              0x08008139  0x3fc  Code  Lc  xprintffull.o [4]
_LitobFull              0x08008031  0x106  Code  Lc  xprintffull.o [4]
_LocaleEncoding         0x080093f5    0xe  Code  Gb  setlocale.o [4]
_LocaleReturnString     0x200001ac   0x50  Data  Lc  setlocale.o [4]
_Locale_Profile         0x20000190   0x1c  Data  Gb  setlocale.o [4]
_Locale_aeabi_lconv     0x20000150   0x38  Data  Gb  localeconv.o [4]
_Locale_lconv           0x20000100   0x50  Data  Gb  localeconv.o [4]
_Mbtowc                 0x080089d9   0x20  Code  Gb  xmbtowc.o [4]
_PrintfFull             0x0800767d  0x61e  Code  Gb  xprintffull.o [4]
_PutcharsFull           0x08008787   0x2e  Code  Lc  xprintffull.o [4]
_PutstrFull             0x08007d1f  0x30c  Code  Lc  xprintffull.o [4]
_SNProut                0x080025fb   0x1a  Code  Gb  xsnprout.o [4]
_TzoneStr               0x20000188    0x4  Data  Gb  setlocale.o [4]
_Wctomb                 0x08008aab   0x1a  Code  Gb  xwctomb.o [4]
__aeabi_cdcmple         0x08008bf5         Code  Gb  DblCmpLe.o [5]
__aeabi_cdrcmple        0x08008c25         Code  Gb  DblCmpGe.o [5]
__aeabi_d2iz            0x08008d61         Code  Gb  DblToI32.o [5]
__aeabi_d2uiz           0x08008d8d         Code  Gb  DblToI32.o [5]
__aeabi_ddiv            0x0800910d         Code  Gb  DblDiv.o [5]
__aeabi_dmul            0x08008f69         Code  Gb  DblMul.o [5]
__aeabi_dsub            0x08008de9         Code  Gb  DblSub.o [5]
__aeabi_i2d             0x08008db9         Code  Gb  I32ToDbl.o [5]
__aeabi_ldiv0           0x08009469         Code  Gb  I64DivZer.o [6]
__aeabi_memclr4         0x080025f5         Code  Gb  ABImemclr4.o [6]
__aeabi_memset          0x080036c1         Code  Gb  ABImemset.o [6]
__aeabi_memset4         0x08003bed         Code  Gb  ABImemset48.o [6]
__aeabi_memset8         0x08003bed         Code  Gb  ABImemset48.o [6]
__aeabi_ui2d            0x08008dcd         Code  Gb  I32ToDbl.o [5]
__aeabi_uldivmod        0x08008ac5         Code  Gb  I64DivMod.o [6]
__cmain                 0x08009b5d         Code  Gb  cmain.o [6]
__data_GetMemChunk      0x080087d5   0x2c  Code  Gb  xgetmemchunk.o [4]
__exit                  0x080093e1   0x14  Code  Gb  exit.o [7]
__iar_Dnorm             0x08008bb3   0x42  Code  Gb  xdnorm.o [5]
__iar_Dscale            0x08008c55  0x10c  Code  Gb  xdscale.o [5]
__iar_Locale_lconv_init
                        0x08009365   0x3a  Code  Gb  localeconv.o [4]
__iar_Mbcurmax          0x08008aa1    0xa  Code  Gb  xmbcurmax.o [4]
__iar_Memchr            0x08008a49         Code  Gb  memchr.o [6]
__iar_Memset            0x080036c1         Code  Gb  ABImemset.o [6]
__iar_Memset4_word      0x08003bf5         Code  Gb  ABImemset48.o [6]
__iar_Memset8_word      0x08003bf5         Code  Gb  ABImemset48.o [6]
__iar_Memset_word       0x080036c9         Code  Gb  ABImemset.o [6]
__iar_Strchr            0x080089f9         Code  Gb  strchr.o [6]
__iar_d2uiz             0x08008d99         Code  Gb  DblToI32.o [5]
__iar_dadd              0x0800946d         Code  Gb  DblAdd.o [5]
__iar_data_init3        0x08009b09   0x28  Code  Gb  data_init.o [6]
__iar_dlfree            0x0800684f  0x510  Code  Gb  dlmalloc.o [4]
__iar_dlib_perthread_access
                        0x08009541    0x2  Code  Gb  xtls.o [4]
__iar_dlmalloc          0x08006599  0x2aa  Code  Gb  dlmalloc.o [4]
__iar_dsub              0x08008dfd         Code  Gb  DblSub.o [5]
__iar_dsubStart         0x08008e0f         Code  Gb  DblSub.o [5]
__iar_packbits_init3    0x0800985f   0xae  Code  Gb  packbits_init.o [6]
__iar_program_start     0x08009b9d         Code  Gb  cstartup_M.o [6]
__iar_ui2d              0x08008dd1         Code  Gb  I32ToDbl.o [5]
__iar_unaligned___aeabi_memcpy
                        0x08003c29         Code  Gb  ABImemcpy_unaligned.o [6]
__iar_unaligned___aeabi_memcpy4
                        0x08003c49         Code  Gb  ABImemcpy_unaligned.o [6]
__iar_unaligned___aeabi_memcpy8
                        0x08003c49         Code  Gb  ABImemcpy_unaligned.o [6]
__iar_unaligned_memcmp  0x08003ca1         Code  Gb  memcmp_unaligned.o [6]
__iar_zero_init3        0x08009ac9   0x40  Code  Gb  zero_init3.o [6]
__low_level_init        0x08009b77    0x4  Code  Gb  low_level_init.o [4]
__vector_table          0x08000000         Data  Gb  startup_stm32f10x_md.o [2]
_call_main              0x08009b69         Code  Gb  cmain.o [6]
_exit                   0x08009b81         Code  Gb  cexit.o [6]
_gm_                    0x20001608  0x1d8  Data  Lc  dlmalloc.o [4]
_main                   0x08009b73         Code  Gb  cmain.o [6]
abort                   0x080087cf    0x6  Code  Gb  abort.o [4]
bat_cali_ok_flag        0x20000246    0x1  Data  Lc  user_rf_app.o [2]
bat_current             0x20000278    0x4  Data  Lc  user_rf_app.o [2]
bat_dif_val             0x2000027c    0x4  Data  Lc  user_rf_app.o [2]
bat_engined_average     0x20000274    0x4  Data  Lc  user_rf_app.o [2]
bat_off_average         0x20000270    0x4  Data  Lc  user_rf_app.o [2]
buffer                  0x20000be8  0x1f4  Data  Lc  user_debug_app.o [2]
car_power               0x20000212    0x1  Data  Lc  user_rf_app.o [2]
check_bat_vol_buf       0x20000248   0x28  Data  Lc  user_rf_app.o [2]
check_bat_vol_buf_offset
                        0x20000245    0x1  Data  Lc  user_rf_app.o [2]
check_bat_vol_ok_flag   0x20000244    0x1  Data  Lc  user_rf_app.o [2]
check_study_key         0x080018c3   0x52  Code  Lc  user_rf_app.o [2]
control_car_power       0x080001ed   0x92  Code  Gb  user_rf_app.o [2]
creat_app_task          0x08003271   0x3a  Code  Gb  DeviceManage.o [2]
ctl_car_remote_start    0x08000299   0xa0  Code  Gb  user_rf_app.o [2]
ctl_car_remote_stop     0x080003c9   0x22  Code  Gb  user_rf_app.o [2]
dat_28bb                0x200024aa    0x1  Data  Gb  Encoding.o [1]
dat_2970                0x200024a9    0x1  Data  Gb  Encoding.o [1]
dat_2971                0x200024a8    0x1  Data  Gb  Encoding.o [1]
debug_port_init         0x0800240d   0x14  Code  Gb  user_debug_app.o [2]
div                     0x080093d1    0xe  Code  Gb  div.o [4]
exit                    0x08009b7b    0x4  Code  Gb  exit.o [4]
factory_trace_id        0x20000228    0x4  Data  Lc  user_rf_app.o [2]
init_mparams            0x08005893   0x32  Code  Lc  dlmalloc.o [4]
init_top                0x080058c5   0x34  Code  Lc  dlmalloc.o [4]
key_release             0x08000ec9   0x92  Code  Gb  user_rf_app.o [2]
key_sn                  0x20000215    0x1  Data  Lc  user_rf_app.o [2]
lf_dst_WUPA             0x2000021e    0x2  Data  Gb  user_rf_app.o [2]
localeconv              0x0800939f   0x16  Code  Gb  localeconv.o [4]
localtime               0x0800891d   0xb0  Code  Gb  Common.o [2]
main                    0x0800990d   0x54  Code  Gb  main.o [2]
main_key_sn             0x20000219    0x1  Data  Gb  user_rf_app.o [2]
memchr                  0x08008a49         Code  Gb  memchr.o [6]
memset                  0x08007351   0x14  Code  Gb  memset.o [4]
mparams                 0x20002490   0x18  Data  Lc  dlmalloc.o [4]
on_change_flag          0x20000216    0x1  Data  Lc  user_rf_app.o [2]
on_status               0x20000217    0x1  Data  Lc  user_rf_app.o [2]
power_off_smart_card    0x08000171   0x22  Code  Gb  user_rf_app.o [2]
power_on_smart_card     0x0800012b   0x2e  Code  Gb  user_rf_app.o [2]
ppt                     0x200024ac    0x4  Data  Gb  Encoding.o [1]
prepend_alloc           0x080058f9  0x36c  Code  Lc  dlmalloc.o [4]
print_mutex             0x20000ddc   0x2c  Data  Gb  user_debug_app.o [2]
printf_time_now         0x08007211   0x6c  Code  Gb  user_rtc_app.o [2]
procde77                0x08003861   0x2a  Code  Gb  Encoding.o [1]
procdeb1                0x0800388b   0x34  Code  Gb  Encoding.o [1]
procdf34                0x080038bf   0xb8  Code  Gb  Encoding.o [1]
proce050                0x08003977   0x38  Code  Gb  Encoding.o [1]
remote_pwr_on_card_timestamp
                        0x20000220    0x4  Data  Lc  user_rf_app.o [2]
remote_started_flag     0x20000218    0x1  Data  Lc  user_rf_app.o [2]
reset_mcu               0x08009985    0x2  Code  Gb  stm32f10x_it.o [2]
rf_open_module          0x080017a9    0x2  Code  Lc  user_rf_app.o [2]
rf_task_Tcb             0x20001ff8   0xd0  Data  Gb  os_cfg_app.o [2]
rf_task_stk             0x20001c34  0x100  Data  Gb  os_cfg_app.o [2]
rt_ringbuffer_data_len  0x080074f9   0x3c  Code  Lc  ringbuffer.o [2]
rt_ringbuffer_data_len  0x08004b91   0x3c  Code  Lc  uart1_network_layer.o [2]
rt_ringbuffer_data_len  0x0800956d   0x3c  Code  Lc  uart2_network_layer.o [2]
rt_ringbuffer_data_len  0x080096e9   0x3c  Code  Lc  uart3_network_layer.o [2]
rt_ringbuffer_get       0x080075eb   0x92  Code  Gb  ringbuffer.o [2]
rt_ringbuffer_init      0x08007535   0x22  Code  Gb  ringbuffer.o [2]
rt_ringbuffer_put       0x08007557   0x94  Code  Gb  ringbuffer.o [2]
rt_ringbuffer_status    0x080074d1   0x28  Code  Lc  ringbuffer.o [2]
rt_ringbuffer_status    0x08004b69   0x28  Code  Lc  uart1_network_layer.o [2]
rt_ringbuffer_status    0x08009545   0x28  Code  Lc  uart2_network_layer.o [2]
rt_ringbuffer_status    0x080096c1   0x28  Code  Lc  uart3_network_layer.o [2]
rtc_calibrate_flag      0x20002448    0x1  Data  Lc  user_rtc_app.o [2]
rtc_rd_wr_mutex         0x2000244c   0x2c  Data  Lc  user_rtc_app.o [2]
segment_holding         0x08005879   0x1a  Code  Lc  dlmalloc.o [4]
smart_card_need_dly_pwr_off_flag
                        0x20000213    0x1  Data  Lc  user_rf_app.o [2]
smart_card_pwr_status   0x20000214    0x1  Data  Lc  user_rf_app.o [2]
strchr                  0x080089f9         Code  Gb  strchr.o [6]
strlen                  0x08008a11         Code  Gb  strlen.o [6]
sys_alloc               0x08005c65  0x386  Code  Lc  dlmalloc.o [4]
tab_3480                0x080039ec    0x8  Data  Gb  Encoding.o [1]
tab_3488                0x080039f4   0x60  Data  Gb  Encoding.o [1]
tab_3548                0x08003a54   0x60  Data  Gb  Encoding.o [1]
tab_3608                0x08003ab4   0x10  Data  Gb  Encoding.o [1]
tab_3618                0x08003ac4  0x100  Data  Gb  Encoding.o [1]
tab_58b0                0x08003bc4    0x8  Data  Gb  Encoding.o [1]
tab_58c0                0x08003bcc   0x10  Data  Gb  Encoding.o [1]
tab_58e0                0x08003bdc   0x10  Data  Gb  Encoding.o [1]
tmalloc_large           0x08005ff9  0x390  Code  Lc  dlmalloc.o [4]
tmalloc_small           0x08006389  0x210  Code  Lc  dlmalloc.o [4]
uart1_get_busy_state    0x08004cdb    0x6  Code  Gb  uart1_network_layer.o [2]
uart1_init_link         0x08004ce1   0x26  Code  Lc  uart1_network_layer.o [2]
uart1_rd_one_package_from_tx_ringbuffer
                        0x08004d07   0x34  Code  Lc  uart1_network_layer.o [2]
uart1_retry_delay       0x08004bcd    0xc  Code  Lc  uart1_network_layer.o [2]
uart1_rx_ringbuf        0x200017fc   0x80  Data  Lc  uart1_network_layer.o [2]
uart1_rx_ringbuffer_controller
                        0x200017f0    0xc  Data  Lc  uart1_network_layer.o [2]
uart1_send_data         0x08004dcb   0xc2  Code  Gb  uart1_network_layer.o [2]
uart1_send_sta          0x200017e0    0x1  Data  Lc  uart1_network_layer.o [2]
uart1_trig_a_tx_interrupt
                        0x08004d3b   0x4c  Code  Lc  uart1_network_layer.o [2]
uart1_tx_ringbuf        0x2000187c  0x100  Data  Lc  uart1_network_layer.o [2]
uart1_tx_ringbuffer_controller
                        0x200017e4    0xc  Data  Lc  uart1_network_layer.o [2]
uart1_wr_rx_link_buffer
                        0x080074c1   0x10  Code  Gb  uart1_network_layer.o [2]
uart1_wr_tx_link_buf_max_len
                        0x08004d87   0x44  Code  Lc  uart1_network_layer.o [2]
uart2_rd_one_package_from_tx_ringbuffer
                        0x08009623   0x34  Code  Lc  uart2_network_layer.o [2]
uart2_rx_ringbuf        0x20001b34   0x80  Data  Lc  uart2_network_layer.o [2]
uart2_rx_ringbuffer_controller
                        0x20001b28    0xc  Data  Lc  uart2_network_layer.o [2]
uart2_send_sta          0x20001b18    0x1  Data  Lc  uart2_network_layer.o [2]
uart2_trig_a_tx_interrupt
                        0x08009657   0x4c  Code  Lc  uart2_network_layer.o [2]
uart2_tx_ringbuf        0x20001bb4   0x80  Data  Lc  uart2_network_layer.o [2]
uart2_tx_ringbuffer_controller
                        0x20001b1c    0xc  Data  Lc  uart2_network_layer.o [2]
uart2_wr_rx_link_buffer
                        0x080096b1   0x10  Code  Gb  uart2_network_layer.o [2]
uart3_rd_one_package_from_tx_ringbuffer
                        0x0800979f   0x34  Code  Lc  uart3_network_layer.o [2]
uart3_rx_ringbuf        0x20001998  0x100  Data  Lc  uart3_network_layer.o [2]
uart3_rx_ringbuffer_controller
                        0x2000198c    0xc  Data  Lc  uart3_network_layer.o [2]
uart3_send_sta          0x2000197c    0x1  Data  Lc  uart3_network_layer.o [2]
uart3_trig_a_tx_interrupt
                        0x080097d3   0x4c  Code  Lc  uart3_network_layer.o [2]
uart3_tx_ringbuf        0x20001a98   0x80  Data  Lc  uart3_network_layer.o [2]
uart3_tx_ringbuffer_controller
                        0x20001980    0xc  Data  Lc  uart3_network_layer.o [2]
uart3_wr_rx_link_buffer
                        0x0800982d   0x10  Code  Gb  uart3_network_layer.o [2]
user_delay_ms           0x08003087    0xc  Code  Gb  DeviceManage.o [2]
user_free               0x0800305f   0x28  Code  Gb  DeviceManage.o [2]
user_get_os_time        0x08003093    0xa  Code  Gb  DeviceManage.o [2]
user_malloc             0x08003011   0x4e  Code  Gb  DeviceManage.o [2]
user_open_rtc           0x080071a5   0x6c  Code  Gb  user_rtc_app.o [2]
user_uart1_dis_tx_int   0x08004c6d    0xc  Code  Lc  uart1_network_layer.o [2]
user_uart1_en_tx_int    0x08004c61    0xc  Code  Lc  uart1_network_layer.o [2]
user_uart1_open         0x08004bd9   0x88  Code  Gb  uart1_network_layer.o [2]
user_uart1_receive_one_data_package
                        0x08004c97    0xa  Code  Lc  uart1_network_layer.o [2]
user_uart1_transmit_one_data_package
                        0x08004c79   0x1e  Code  Lc  uart1_network_layer.o [2]
user_uart2_dis_tx_int   0x080095b5    0xc  Code  Lc  uart2_network_layer.o [2]
user_uart2_en_tx_int    0x080095a9    0xc  Code  Lc  uart2_network_layer.o [2]
user_uart2_receive_one_data_package
                        0x080095df    0xa  Code  Lc  uart2_network_layer.o [2]
user_uart2_transmit_one_data_package
                        0x080095c1   0x1e  Code  Lc  uart2_network_layer.o [2]
user_uart3_dis_tx_int   0x08009731    0xc  Code  Lc  uart3_network_layer.o [2]
user_uart3_en_tx_int    0x08009725    0xc  Code  Lc  uart3_network_layer.o [2]
user_uart3_receive_one_data_package
                        0x0800975b    0xa  Code  Lc  uart3_network_layer.o [2]
user_uart3_transmit_one_data_package
                        0x0800973d   0x1e  Code  Lc  uart3_network_layer.o [2]
vsnprintf               0x0800527d   0x3c  Code  Gb  vsnprint.o [4]


[1] = D:\GitHub2\smart_box_q5\SMART_CARD\Project\App\rf
[2] = D:\GitHub2\smart_box_q5\SMART_CARD\Project\STM32F10x_StdPeriph_Template\EWARM\STM3210B-EVAL\Obj
[3] = command line
[4] = dl7M_tlf.a
[5] = m7M_tl.a
[6] = rt7M_tl.a
[7] = shb_l.a

  39 930 bytes of readonly  code memory
     442 bytes of readonly  data memory
  12 615 bytes of readwrite data memory

Errors: none
Warnings: none
